; Function Attrs: nounwind uwtable
define internal i32 @_sort_job_by_group_name(ptr noundef readonly captures(none) %0, ptr noundef readonly captures(none) %1) #0 {
  %3 = alloca ptr, align 8
  %4 = alloca ptr, align 8
  call void @llvm.lifetime.start.p0(i64 8, ptr nonnull %3) #11
  call void @llvm.lifetime.start.p0(i64 8, ptr nonnull %4) #11
  %.val = load ptr, ptr %0, align 8
  %5 = getelementptr i8, ptr %.val, i64 8
  %.val.val = load ptr, ptr %5, align 8
  %6 = load ptr, ptr %1, align 8
  %7 = getelementptr inbounds nuw i8, ptr %6, i64 8
  %8 = load ptr, ptr %7, align 8
  %9 = getelementptr inbounds nuw i8, ptr %.val.val, i64 392
  %10 = load i32, ptr %9, align 8
  %11 = tail call ptr @gid_to_string(i32 noundef %10) #11
  store ptr %11, ptr %3, align 8
  %12 = getelementptr inbounds nuw i8, ptr %8, i64 392
  %13 = load i32, ptr %12, align 8
  %14 = tail call ptr @gid_to_string(i32 noundef %13) #11
  store ptr %14, ptr %4, align 8
  %15 = tail call i32 @xstrcmp(ptr noundef %11, ptr noundef %14) #11
  call void @slurm_xfree(ptr noundef nonnull %3) #11
  call void @slurm_xfree(ptr noundef nonnull %4) #11
  %.b3 = load i1, ptr @reverse_order, align 1
  %16 = sub nsw i32 0, %15
  %spec.select = select i1 %.b3, i32 %16, i32 %15
  call void @llvm.lifetime.end.p0(i64 8, ptr nonnull %4) #11
  call void @llvm.lifetime.end.p0(i64 8, ptr nonnull %3) #11
  ret i32 %spec.select
}